target datalayout = "e-m:e-p270:32:32-p271:32:32-p272:64:64-i64:64-i128:128-f80:128-n8:16:32:64-S128"
target triple = "x86_64-pc-linux-gnu"

%"class.sentencepiece::unigram::Lattice" = type { ptr, %"class.std::basic_string_view", %"class.std::vector", %"class.std::vector.0", %"class.std::vector.0", %"class.sentencepiece::model::FreeList" }
%"class.std::basic_string_view" = type { i64, ptr }
%"class.std::vector" = type { %"struct.std::_Vector_base" }
%"struct.std::_Vector_base" = type { %"struct.std::_Vector_base<const char *, std::allocator<const char *>>::_Vector_impl" }
%"struct.std::_Vector_base<const char *, std::allocator<const char *>>::_Vector_impl" = type { %"struct.std::_Vector_base<const char *, std::allocator<const char *>>::_Vector_impl_data" }
%"struct.std::_Vector_base<const char *, std::allocator<const char *>>::_Vector_impl_data" = type { ptr, ptr, ptr }
%"class.std::vector.0" = type { %"struct.std::_Vector_base.1" }
%"struct.std::_Vector_base.1" = type { %"struct.std::_Vector_base<std::vector<sentencepiece::unigram::Lattice::Node *>, std::allocator<std::vector<sentencepiece::unigram::Lattice::Node *>>>::_Vector_impl" }
%"struct.std::_Vector_base<std::vector<sentencepiece::unigram::Lattice::Node *>, std::allocator<std::vector<sentencepiece::unigram::Lattice::Node *>>>::_Vector_impl" = type { %"struct.std::_Vector_base<std::vector<sentencepiece::unigram::Lattice::Node *>, std::allocator<std::vector<sentencepiece::unigram::Lattice::Node *>>>::_Vector_impl_data" }
%"struct.std::_Vector_base<std::vector<sentencepiece::unigram::Lattice::Node *>, std::allocator<std::vector<sentencepiece::unigram::Lattice::Node *>>>::_Vector_impl_data" = type { ptr, ptr, ptr }
%"class.sentencepiece::model::FreeList" = type { ptr, %"class.std::vector.5", i64, i64, i64 }
%"class.std::vector.5" = type { %"struct.std::_Vector_base.6" }
%"struct.std::_Vector_base.6" = type { %"struct.std::_Vector_base<sentencepiece::unigram::Lattice::Node *, std::allocator<sentencepiece::unigram::Lattice::Node *>>::_Vector_impl" }
%"struct.std::_Vector_base<sentencepiece::unigram::Lattice::Node *, std::allocator<sentencepiece::unigram::Lattice::Node *>>::_Vector_impl" = type { %"struct.std::_Vector_base<sentencepiece::unigram::Lattice::Node *, std::allocator<sentencepiece::unigram::Lattice::Node *>>::_Vector_impl_data" }
%"struct.std::_Vector_base<sentencepiece::unigram::Lattice::Node *, std::allocator<sentencepiece::unigram::Lattice::Node *>>::_Vector_impl_data" = type { ptr, ptr, ptr }
%"struct.sentencepiece::unigram::Lattice::Node" = type { %"class.std::basic_string_view", i32, i32, i32, i32, float, float, ptr }

; Function Attrs: mustprogress nounwind uwtable
define linkonce_odr noundef i64 @_ZNK13sentencepiece5model8FreeListINS_7unigram7Lattice4NodeEE4sizeEv(ptr noundef nonnull align 8 dereferenceable(56) %0) #5 comdat align 2 {
  %2 = alloca ptr, align 8
  store ptr %0, ptr %2, align 8, !tbaa !21
  %3 = load ptr, ptr %2, align 8
  %4 = getelementptr inbounds nuw %"class.sentencepiece::model::FreeList", ptr %3, i32 0, i32 4
  %5 = load i64, ptr %4, align 8, !tbaa !33
  %6 = getelementptr inbounds nuw %"class.sentencepiece::model::FreeList", ptr %3, i32 0, i32 3
  %7 = load i64, ptr %6, align 8, !tbaa !32
  %8 = mul i64 %5, %7
  %9 = getelementptr inbounds nuw %"class.sentencepiece::model::FreeList", ptr %3, i32 0, i32 2
  %10 = load i64, ptr %9, align 8, !tbaa !24
  %11 = add i64 %8, %10
  ret i64 %11
}

; Function Attrs: mustprogress uwtable
define noundef ptr @_ZN13sentencepiece7unigram7Lattice7NewNodeEv(ptr noundef nonnull align 8 dereferenceable(152) %0) #4 align 2 {
  %2 = alloca ptr, align 8
  %3 = alloca ptr, align 8
  store ptr %0, ptr %2, align 8, !tbaa !3
  %4 = load ptr, ptr %2, align 8
  call void @llvm.lifetime.start.p0(i64 8, ptr %3) #3
  %5 = getelementptr inbounds nuw %"class.sentencepiece::unigram::Lattice", ptr %4, i32 0, i32 5
  %6 = call noundef ptr @_ZN13sentencepiece5model8FreeListINS_7unigram7Lattice4NodeEE8AllocateEv(ptr noundef nonnull align 8 dereferenceable(56) %5)
  store ptr %6, ptr %3, align 8, !tbaa !44
  %7 = getelementptr inbounds nuw %"class.sentencepiece::unigram::Lattice", ptr %4, i32 0, i32 5
  %8 = call noundef i64 @_ZNK13sentencepiece5model8FreeListINS_7unigram7Lattice4NodeEE4sizeEv(ptr noundef nonnull align 8 dereferenceable(56) %7)
  %9 = sub i64 %8, 1
  %10 = trunc i64 %9 to i32
  %11 = load ptr, ptr %3, align 8, !tbaa !44
  %12 = getelementptr inbounds nuw %"struct.sentencepiece::unigram::Lattice::Node", ptr %11, i32 0, i32 3
  store i32 %10, ptr %12, align 8, !tbaa !52
  %13 = load ptr, ptr %3, align 8, !tbaa !44
  call void @llvm.lifetime.end.p0(i64 8, ptr %3) #3
  ret ptr %13
}