; Function Attrs: mustprogress uwtable
define noundef ptr @_ZN13sentencepiece7unigram7Lattice7NewNodeEv(ptr noundef nonnull align 8 dereferenceable(152) %0) local_unnamed_addr #9 align 2 {
  %2 = getelementptr inbounds nuw i8, ptr %0, i64 96
  %3 = tail call noundef ptr @_ZN13sentencepiece5model8FreeListINS_7unigram7Lattice4NodeEE8AllocateEv(ptr noundef nonnull align 8 dereferenceable(56) %2)
  %4 = getelementptr inbounds nuw i8, ptr %0, i64 144
  %5 = load i64, ptr %4, align 8, !tbaa !6
  %6 = getelementptr inbounds nuw i8, ptr %0, i64 136
  %7 = load i64, ptr %6, align 8, !tbaa !39
  %8 = mul i64 %7, %5
  %9 = getelementptr inbounds nuw i8, ptr %0, i64 128
  %10 = load i64, ptr %9, align 8, !tbaa !40
  %11 = add i64 %8, %10
  %12 = trunc i64 %11 to i32
  %13 = add i32 %12, -1
  %14 = getelementptr inbounds nuw i8, ptr %3, i64 24
  store i32 %13, ptr %14, align 8, !tbaa !41
  ret ptr %3
}